target datalayout = "e-m:e-p270:32:32-p271:32:32-p272:64:64-i64:64-i128:128-f80:128-n8:16:32:64-S128"
target triple = "x86_64-pc-linux-gnu"

%struct.filter = type { [65536 x i8], [65536 x i8], i64 }
%struct.filter_match_info = type { i64 }

; Function Attrs: nounwind uwtable
define i32 @filter_search_ext(ptr noundef %0, ptr noundef %1, i64 noundef %2, ptr noundef %3) #0 {
  %5 = alloca i32, align 4
  %6 = alloca ptr, align 8
  %7 = alloca ptr, align 8
  %8 = alloca i64, align 8
  %9 = alloca ptr, align 8
  %10 = alloca i64, align 8
  %11 = alloca i8, align 1
  %12 = alloca ptr, align 8
  %13 = alloca ptr, align 8
  %14 = alloca i8, align 1
  %15 = alloca i16, align 2
  store ptr %0, ptr %6, align 8
  store ptr %1, ptr %7, align 8
  store i64 %2, ptr %8, align 8
  store ptr %3, ptr %9, align 8
  store i8 -1, ptr %11, align 1
  %16 = load ptr, ptr %6, align 8
  %17 = getelementptr inbounds %struct.filter, ptr %16, i32 0, i32 0
  %18 = getelementptr inbounds [65536 x i8], ptr %17, i64 0, i64 0
  store ptr %18, ptr %12, align 8
  %19 = load ptr, ptr %6, align 8
  %20 = getelementptr inbounds %struct.filter, ptr %19, i32 0, i32 1
  %21 = getelementptr inbounds [65536 x i8], ptr %20, i64 0, i64 0
  store ptr %21, ptr %13, align 8
  %22 = load i64, ptr %8, align 8
  %23 = icmp ult i64 %22, 2
  br i1 %23, label %24, label %25

24:                                               ; preds = %4
  store i32 -1, ptr %5, align 4
  br label %69

25:                                               ; preds = %4
  store i64 0, ptr %10, align 8
  br label %26

26:                                               ; preds = %65, %25
  %27 = load i64, ptr %10, align 8
  %28 = load i64, ptr %8, align 8
  %29 = sub i64 %28, 1
  %30 = icmp ult i64 %27, %29
  br i1 %30, label %31, label %68

31:                                               ; preds = %26
  %32 = load ptr, ptr %7, align 8
  %33 = load i64, ptr %10, align 8
  %34 = getelementptr inbounds i8, ptr %32, i64 %33
  %35 = load i16, ptr %34, align 1
  store i16 %35, ptr %15, align 2
  %36 = load i8, ptr %11, align 1
  %37 = zext i8 %36 to i32
  %38 = shl i32 %37, 1
  %39 = load ptr, ptr %12, align 8
  %40 = load i16, ptr %15, align 2
  %41 = zext i16 %40 to i64
  %42 = getelementptr inbounds i8, ptr %39, i64 %41
  %43 = load i8, ptr %42, align 1
  %44 = zext i8 %43 to i32
  %45 = or i32 %38, %44
  %46 = trunc i32 %45 to i8
  store i8 %46, ptr %11, align 1
  %47 = load i8, ptr %11, align 1
  %48 = zext i8 %47 to i32
  %49 = load ptr, ptr %13, align 8
  %50 = load i16, ptr %15, align 2
  %51 = zext i16 %50 to i64
  %52 = getelementptr inbounds i8, ptr %49, i64 %51
  %53 = load i8, ptr %52, align 1
  %54 = zext i8 %53 to i32
  %55 = or i32 %48, %54
  %56 = trunc i32 %55 to i8
  store i8 %56, ptr %14, align 1
  %57 = load i8, ptr %14, align 1
  %58 = zext i8 %57 to i32
  %59 = icmp ne i32 %58, 255
  br i1 %59, label %60, label %64

60:                                               ; preds = %31
  %61 = load i64, ptr %10, align 8
  %62 = load ptr, ptr %9, align 8
  %63 = getelementptr inbounds %struct.filter_match_info, ptr %62, i32 0, i32 0
  store i64 %61, ptr %63, align 8
  store i32 0, ptr %5, align 4
  br label %69

64:                                               ; preds = %31
  br label %65

65:                                               ; preds = %64
  %66 = load i64, ptr %10, align 8
  %67 = add i64 %66, 1
  store i64 %67, ptr %10, align 8
  br label %26

68:                                               ; preds = %26
  store i32 -1, ptr %5, align 4
  br label %69

69:                                               ; preds = %68, %60, %24
  %70 = load i32, ptr %5, align 4
  ret i32 %70
}