; Function Attrs: nofree norecurse nosync nounwind memory(argmem: readwrite) uwtable
define range(i32 -1, 1) i32 @filter_search_ext(ptr noundef readonly captures(none) %0, ptr noundef readonly captures(none) %1, i64 noundef %2, ptr noundef writeonly captures(none) %3) local_unnamed_addr #5 {
  %5 = getelementptr inbounds nuw i8, ptr %0, i64 65536
  %6 = icmp ult i64 %2, 2
  br i1 %6, label %.loopexit, label %.lr.ph.preheader

.lr.ph.preheader:                                 ; preds = %4
  %7 = add i64 %2, -2
  br label %.lr.ph

.lr.ph:                                           ; preds = %.lr.ph.preheader, %19
  %.01722 = phi i64 [ %20, %19 ], [ 0, %.lr.ph.preheader ]
  %.01821 = phi i8 [ %14, %19 ], [ -1, %.lr.ph.preheader ]
  %8 = getelementptr inbounds i8, ptr %1, i64 %.01722
  %9 = load i16, ptr %8, align 1
  %10 = shl i8 %.01821, 1
  %11 = zext i16 %9 to i64
  %12 = getelementptr inbounds nuw i8, ptr %0, i64 %11
  %13 = load i8, ptr %12, align 1
  %14 = or i8 %13, %10
  %15 = getelementptr inbounds nuw i8, ptr %5, i64 %11
  %16 = load i8, ptr %15, align 1
  %17 = or i8 %16, %14
  %.not = icmp eq i8 %17, -1
  br i1 %.not, label %19, label %18

18:                                               ; preds = %.lr.ph
  store i64 %.01722, ptr %3, align 8
  br label %.loopexit

19:                                               ; preds = %.lr.ph
  %20 = add nuw i64 %.01722, 1
  %exitcond.not = icmp eq i64 %.01722, %7
  br i1 %exitcond.not, label %.loopexit, label %.lr.ph

.loopexit:                                        ; preds = %19, %4, %18
  %.0 = phi i32 [ 0, %18 ], [ -1, %4 ], [ -1, %19 ]
  ret i32 %.0
}